
/home/noah/tmp/objdumps/memcpy-dev-v9-2021-08-05-T17-37-18.o:     file format elf64-x86-64


Disassembly of section .text.evex:

0000000000000000 <MEMCPY-0x800>:
   0:	90                   	nop
   1:	e9 fa 07 00 00       	jmpq   800 <MEMCPY>
   6:	66 66 2e 0f 1f 84 00 	data16 nopw %cs:0x0(%rax,%rax,1)
   d:	00 00 00 00 
  11:	66 66 2e 0f 1f 84 00 	data16 nopw %cs:0x0(%rax,%rax,1)
  18:	00 00 00 00 
  1c:	66 66 2e 0f 1f 84 00 	data16 nopw %cs:0x0(%rax,%rax,1)
  23:	00 00 00 00 
  27:	66 66 2e 0f 1f 84 00 	data16 nopw %cs:0x0(%rax,%rax,1)
  2e:	00 00 00 00 
  32:	66 66 2e 0f 1f 84 00 	data16 nopw %cs:0x0(%rax,%rax,1)
  39:	00 00 00 00 
  3d:	66 66 2e 0f 1f 84 00 	data16 nopw %cs:0x0(%rax,%rax,1)
  44:	00 00 00 00 
  48:	66 66 2e 0f 1f 84 00 	data16 nopw %cs:0x0(%rax,%rax,1)
  4f:	00 00 00 00 
  53:	66 66 2e 0f 1f 84 00 	data16 nopw %cs:0x0(%rax,%rax,1)
  5a:	00 00 00 00 
  5e:	66 66 2e 0f 1f 84 00 	data16 nopw %cs:0x0(%rax,%rax,1)
  65:	00 00 00 00 
  69:	66 66 2e 0f 1f 84 00 	data16 nopw %cs:0x0(%rax,%rax,1)
  70:	00 00 00 00 
  74:	66 66 2e 0f 1f 84 00 	data16 nopw %cs:0x0(%rax,%rax,1)
  7b:	00 00 00 00 
  7f:	66 66 2e 0f 1f 84 00 	data16 nopw %cs:0x0(%rax,%rax,1)
  86:	00 00 00 00 
  8a:	66 66 2e 0f 1f 84 00 	data16 nopw %cs:0x0(%rax,%rax,1)
  91:	00 00 00 00 
  95:	66 66 2e 0f 1f 84 00 	data16 nopw %cs:0x0(%rax,%rax,1)
  9c:	00 00 00 00 
  a0:	66 66 2e 0f 1f 84 00 	data16 nopw %cs:0x0(%rax,%rax,1)
  a7:	00 00 00 00 
  ab:	66 66 2e 0f 1f 84 00 	data16 nopw %cs:0x0(%rax,%rax,1)
  b2:	00 00 00 00 
  b6:	66 66 2e 0f 1f 84 00 	data16 nopw %cs:0x0(%rax,%rax,1)
  bd:	00 00 00 00 
  c1:	66 66 2e 0f 1f 84 00 	data16 nopw %cs:0x0(%rax,%rax,1)
  c8:	00 00 00 00 
  cc:	66 66 2e 0f 1f 84 00 	data16 nopw %cs:0x0(%rax,%rax,1)
  d3:	00 00 00 00 
  d7:	66 66 2e 0f 1f 84 00 	data16 nopw %cs:0x0(%rax,%rax,1)
  de:	00 00 00 00 
  e2:	66 66 2e 0f 1f 84 00 	data16 nopw %cs:0x0(%rax,%rax,1)
  e9:	00 00 00 00 
  ed:	66 66 2e 0f 1f 84 00 	data16 nopw %cs:0x0(%rax,%rax,1)
  f4:	00 00 00 00 
  f8:	66 66 2e 0f 1f 84 00 	data16 nopw %cs:0x0(%rax,%rax,1)
  ff:	00 00 00 00 
 103:	66 66 2e 0f 1f 84 00 	data16 nopw %cs:0x0(%rax,%rax,1)
 10a:	00 00 00 00 
 10e:	66 66 2e 0f 1f 84 00 	data16 nopw %cs:0x0(%rax,%rax,1)
 115:	00 00 00 00 
 119:	66 66 2e 0f 1f 84 00 	data16 nopw %cs:0x0(%rax,%rax,1)
 120:	00 00 00 00 
 124:	66 66 2e 0f 1f 84 00 	data16 nopw %cs:0x0(%rax,%rax,1)
 12b:	00 00 00 00 
 12f:	66 66 2e 0f 1f 84 00 	data16 nopw %cs:0x0(%rax,%rax,1)
 136:	00 00 00 00 
 13a:	66 66 2e 0f 1f 84 00 	data16 nopw %cs:0x0(%rax,%rax,1)
 141:	00 00 00 00 
 145:	66 66 2e 0f 1f 84 00 	data16 nopw %cs:0x0(%rax,%rax,1)
 14c:	00 00 00 00 
 150:	66 66 2e 0f 1f 84 00 	data16 nopw %cs:0x0(%rax,%rax,1)
 157:	00 00 00 00 
 15b:	66 66 2e 0f 1f 84 00 	data16 nopw %cs:0x0(%rax,%rax,1)
 162:	00 00 00 00 
 166:	66 66 2e 0f 1f 84 00 	data16 nopw %cs:0x0(%rax,%rax,1)
 16d:	00 00 00 00 
 171:	66 66 2e 0f 1f 84 00 	data16 nopw %cs:0x0(%rax,%rax,1)
 178:	00 00 00 00 
 17c:	66 66 2e 0f 1f 84 00 	data16 nopw %cs:0x0(%rax,%rax,1)
 183:	00 00 00 00 
 187:	66 66 2e 0f 1f 84 00 	data16 nopw %cs:0x0(%rax,%rax,1)
 18e:	00 00 00 00 
 192:	66 66 2e 0f 1f 84 00 	data16 nopw %cs:0x0(%rax,%rax,1)
 199:	00 00 00 00 
 19d:	66 66 2e 0f 1f 84 00 	data16 nopw %cs:0x0(%rax,%rax,1)
 1a4:	00 00 00 00 
 1a8:	66 66 2e 0f 1f 84 00 	data16 nopw %cs:0x0(%rax,%rax,1)
 1af:	00 00 00 00 
 1b3:	66 66 2e 0f 1f 84 00 	data16 nopw %cs:0x0(%rax,%rax,1)
 1ba:	00 00 00 00 
 1be:	66 66 2e 0f 1f 84 00 	data16 nopw %cs:0x0(%rax,%rax,1)
 1c5:	00 00 00 00 
 1c9:	66 66 2e 0f 1f 84 00 	data16 nopw %cs:0x0(%rax,%rax,1)
 1d0:	00 00 00 00 
 1d4:	66 66 2e 0f 1f 84 00 	data16 nopw %cs:0x0(%rax,%rax,1)
 1db:	00 00 00 00 
 1df:	66 66 2e 0f 1f 84 00 	data16 nopw %cs:0x0(%rax,%rax,1)
 1e6:	00 00 00 00 
 1ea:	66 66 2e 0f 1f 84 00 	data16 nopw %cs:0x0(%rax,%rax,1)
 1f1:	00 00 00 00 
 1f5:	66 66 2e 0f 1f 84 00 	data16 nopw %cs:0x0(%rax,%rax,1)
 1fc:	00 00 00 00 
 200:	66 66 2e 0f 1f 84 00 	data16 nopw %cs:0x0(%rax,%rax,1)
 207:	00 00 00 00 
 20b:	66 66 2e 0f 1f 84 00 	data16 nopw %cs:0x0(%rax,%rax,1)
 212:	00 00 00 00 
 216:	66 66 2e 0f 1f 84 00 	data16 nopw %cs:0x0(%rax,%rax,1)
 21d:	00 00 00 00 
 221:	66 66 2e 0f 1f 84 00 	data16 nopw %cs:0x0(%rax,%rax,1)
 228:	00 00 00 00 
 22c:	66 66 2e 0f 1f 84 00 	data16 nopw %cs:0x0(%rax,%rax,1)
 233:	00 00 00 00 
 237:	66 66 2e 0f 1f 84 00 	data16 nopw %cs:0x0(%rax,%rax,1)
 23e:	00 00 00 00 
 242:	66 66 2e 0f 1f 84 00 	data16 nopw %cs:0x0(%rax,%rax,1)
 249:	00 00 00 00 
 24d:	66 66 2e 0f 1f 84 00 	data16 nopw %cs:0x0(%rax,%rax,1)
 254:	00 00 00 00 
 258:	66 66 2e 0f 1f 84 00 	data16 nopw %cs:0x0(%rax,%rax,1)
 25f:	00 00 00 00 
 263:	66 66 2e 0f 1f 84 00 	data16 nopw %cs:0x0(%rax,%rax,1)
 26a:	00 00 00 00 
 26e:	66 66 2e 0f 1f 84 00 	data16 nopw %cs:0x0(%rax,%rax,1)
 275:	00 00 00 00 
 279:	66 66 2e 0f 1f 84 00 	data16 nopw %cs:0x0(%rax,%rax,1)
 280:	00 00 00 00 
 284:	66 66 2e 0f 1f 84 00 	data16 nopw %cs:0x0(%rax,%rax,1)
 28b:	00 00 00 00 
 28f:	66 66 2e 0f 1f 84 00 	data16 nopw %cs:0x0(%rax,%rax,1)
 296:	00 00 00 00 
 29a:	66 66 2e 0f 1f 84 00 	data16 nopw %cs:0x0(%rax,%rax,1)
 2a1:	00 00 00 00 
 2a5:	66 66 2e 0f 1f 84 00 	data16 nopw %cs:0x0(%rax,%rax,1)
 2ac:	00 00 00 00 
 2b0:	66 66 2e 0f 1f 84 00 	data16 nopw %cs:0x0(%rax,%rax,1)
 2b7:	00 00 00 00 
 2bb:	66 66 2e 0f 1f 84 00 	data16 nopw %cs:0x0(%rax,%rax,1)
 2c2:	00 00 00 00 
 2c6:	66 66 2e 0f 1f 84 00 	data16 nopw %cs:0x0(%rax,%rax,1)
 2cd:	00 00 00 00 
 2d1:	66 66 2e 0f 1f 84 00 	data16 nopw %cs:0x0(%rax,%rax,1)
 2d8:	00 00 00 00 
 2dc:	66 66 2e 0f 1f 84 00 	data16 nopw %cs:0x0(%rax,%rax,1)
 2e3:	00 00 00 00 
 2e7:	66 66 2e 0f 1f 84 00 	data16 nopw %cs:0x0(%rax,%rax,1)
 2ee:	00 00 00 00 
 2f2:	66 66 2e 0f 1f 84 00 	data16 nopw %cs:0x0(%rax,%rax,1)
 2f9:	00 00 00 00 
 2fd:	66 66 2e 0f 1f 84 00 	data16 nopw %cs:0x0(%rax,%rax,1)
 304:	00 00 00 00 
 308:	66 66 2e 0f 1f 84 00 	data16 nopw %cs:0x0(%rax,%rax,1)
 30f:	00 00 00 00 
 313:	66 66 2e 0f 1f 84 00 	data16 nopw %cs:0x0(%rax,%rax,1)
 31a:	00 00 00 00 
 31e:	66 66 2e 0f 1f 84 00 	data16 nopw %cs:0x0(%rax,%rax,1)
 325:	00 00 00 00 
 329:	66 66 2e 0f 1f 84 00 	data16 nopw %cs:0x0(%rax,%rax,1)
 330:	00 00 00 00 
 334:	66 66 2e 0f 1f 84 00 	data16 nopw %cs:0x0(%rax,%rax,1)
 33b:	00 00 00 00 
 33f:	66 66 2e 0f 1f 84 00 	data16 nopw %cs:0x0(%rax,%rax,1)
 346:	00 00 00 00 
 34a:	66 66 2e 0f 1f 84 00 	data16 nopw %cs:0x0(%rax,%rax,1)
 351:	00 00 00 00 
 355:	66 66 2e 0f 1f 84 00 	data16 nopw %cs:0x0(%rax,%rax,1)
 35c:	00 00 00 00 
 360:	66 66 2e 0f 1f 84 00 	data16 nopw %cs:0x0(%rax,%rax,1)
 367:	00 00 00 00 
 36b:	66 66 2e 0f 1f 84 00 	data16 nopw %cs:0x0(%rax,%rax,1)
 372:	00 00 00 00 
 376:	66 66 2e 0f 1f 84 00 	data16 nopw %cs:0x0(%rax,%rax,1)
 37d:	00 00 00 00 
 381:	66 66 2e 0f 1f 84 00 	data16 nopw %cs:0x0(%rax,%rax,1)
 388:	00 00 00 00 
 38c:	66 66 2e 0f 1f 84 00 	data16 nopw %cs:0x0(%rax,%rax,1)
 393:	00 00 00 00 
 397:	66 66 2e 0f 1f 84 00 	data16 nopw %cs:0x0(%rax,%rax,1)
 39e:	00 00 00 00 
 3a2:	66 66 2e 0f 1f 84 00 	data16 nopw %cs:0x0(%rax,%rax,1)
 3a9:	00 00 00 00 
 3ad:	66 66 2e 0f 1f 84 00 	data16 nopw %cs:0x0(%rax,%rax,1)
 3b4:	00 00 00 00 
 3b8:	66 66 2e 0f 1f 84 00 	data16 nopw %cs:0x0(%rax,%rax,1)
 3bf:	00 00 00 00 
 3c3:	66 66 2e 0f 1f 84 00 	data16 nopw %cs:0x0(%rax,%rax,1)
 3ca:	00 00 00 00 
 3ce:	66 66 2e 0f 1f 84 00 	data16 nopw %cs:0x0(%rax,%rax,1)
 3d5:	00 00 00 00 
 3d9:	66 66 2e 0f 1f 84 00 	data16 nopw %cs:0x0(%rax,%rax,1)
 3e0:	00 00 00 00 
 3e4:	66 66 2e 0f 1f 84 00 	data16 nopw %cs:0x0(%rax,%rax,1)
 3eb:	00 00 00 00 
 3ef:	66 66 2e 0f 1f 84 00 	data16 nopw %cs:0x0(%rax,%rax,1)
 3f6:	00 00 00 00 
 3fa:	66 66 2e 0f 1f 84 00 	data16 nopw %cs:0x0(%rax,%rax,1)
 401:	00 00 00 00 
 405:	66 66 2e 0f 1f 84 00 	data16 nopw %cs:0x0(%rax,%rax,1)
 40c:	00 00 00 00 
 410:	66 66 2e 0f 1f 84 00 	data16 nopw %cs:0x0(%rax,%rax,1)
 417:	00 00 00 00 
 41b:	66 66 2e 0f 1f 84 00 	data16 nopw %cs:0x0(%rax,%rax,1)
 422:	00 00 00 00 
 426:	66 66 2e 0f 1f 84 00 	data16 nopw %cs:0x0(%rax,%rax,1)
 42d:	00 00 00 00 
 431:	66 66 2e 0f 1f 84 00 	data16 nopw %cs:0x0(%rax,%rax,1)
 438:	00 00 00 00 
 43c:	66 66 2e 0f 1f 84 00 	data16 nopw %cs:0x0(%rax,%rax,1)
 443:	00 00 00 00 
 447:	66 66 2e 0f 1f 84 00 	data16 nopw %cs:0x0(%rax,%rax,1)
 44e:	00 00 00 00 
 452:	66 66 2e 0f 1f 84 00 	data16 nopw %cs:0x0(%rax,%rax,1)
 459:	00 00 00 00 
 45d:	66 66 2e 0f 1f 84 00 	data16 nopw %cs:0x0(%rax,%rax,1)
 464:	00 00 00 00 
 468:	66 66 2e 0f 1f 84 00 	data16 nopw %cs:0x0(%rax,%rax,1)
 46f:	00 00 00 00 
 473:	66 66 2e 0f 1f 84 00 	data16 nopw %cs:0x0(%rax,%rax,1)
 47a:	00 00 00 00 
 47e:	66 66 2e 0f 1f 84 00 	data16 nopw %cs:0x0(%rax,%rax,1)
 485:	00 00 00 00 
 489:	66 66 2e 0f 1f 84 00 	data16 nopw %cs:0x0(%rax,%rax,1)
 490:	00 00 00 00 
 494:	66 66 2e 0f 1f 84 00 	data16 nopw %cs:0x0(%rax,%rax,1)
 49b:	00 00 00 00 
 49f:	66 66 2e 0f 1f 84 00 	data16 nopw %cs:0x0(%rax,%rax,1)
 4a6:	00 00 00 00 
 4aa:	66 66 2e 0f 1f 84 00 	data16 nopw %cs:0x0(%rax,%rax,1)
 4b1:	00 00 00 00 
 4b5:	66 66 2e 0f 1f 84 00 	data16 nopw %cs:0x0(%rax,%rax,1)
 4bc:	00 00 00 00 
 4c0:	66 66 2e 0f 1f 84 00 	data16 nopw %cs:0x0(%rax,%rax,1)
 4c7:	00 00 00 00 
 4cb:	66 66 2e 0f 1f 84 00 	data16 nopw %cs:0x0(%rax,%rax,1)
 4d2:	00 00 00 00 
 4d6:	66 66 2e 0f 1f 84 00 	data16 nopw %cs:0x0(%rax,%rax,1)
 4dd:	00 00 00 00 
 4e1:	66 66 2e 0f 1f 84 00 	data16 nopw %cs:0x0(%rax,%rax,1)
 4e8:	00 00 00 00 
 4ec:	66 66 2e 0f 1f 84 00 	data16 nopw %cs:0x0(%rax,%rax,1)
 4f3:	00 00 00 00 
 4f7:	66 66 2e 0f 1f 84 00 	data16 nopw %cs:0x0(%rax,%rax,1)
 4fe:	00 00 00 00 
 502:	66 66 2e 0f 1f 84 00 	data16 nopw %cs:0x0(%rax,%rax,1)
 509:	00 00 00 00 
 50d:	66 66 2e 0f 1f 84 00 	data16 nopw %cs:0x0(%rax,%rax,1)
 514:	00 00 00 00 
 518:	66 66 2e 0f 1f 84 00 	data16 nopw %cs:0x0(%rax,%rax,1)
 51f:	00 00 00 00 
 523:	66 66 2e 0f 1f 84 00 	data16 nopw %cs:0x0(%rax,%rax,1)
 52a:	00 00 00 00 
 52e:	66 66 2e 0f 1f 84 00 	data16 nopw %cs:0x0(%rax,%rax,1)
 535:	00 00 00 00 
 539:	66 66 2e 0f 1f 84 00 	data16 nopw %cs:0x0(%rax,%rax,1)
 540:	00 00 00 00 
 544:	66 66 2e 0f 1f 84 00 	data16 nopw %cs:0x0(%rax,%rax,1)
 54b:	00 00 00 00 
 54f:	66 66 2e 0f 1f 84 00 	data16 nopw %cs:0x0(%rax,%rax,1)
 556:	00 00 00 00 
 55a:	66 66 2e 0f 1f 84 00 	data16 nopw %cs:0x0(%rax,%rax,1)
 561:	00 00 00 00 
 565:	66 66 2e 0f 1f 84 00 	data16 nopw %cs:0x0(%rax,%rax,1)
 56c:	00 00 00 00 
 570:	66 66 2e 0f 1f 84 00 	data16 nopw %cs:0x0(%rax,%rax,1)
 577:	00 00 00 00 
 57b:	66 66 2e 0f 1f 84 00 	data16 nopw %cs:0x0(%rax,%rax,1)
 582:	00 00 00 00 
 586:	66 66 2e 0f 1f 84 00 	data16 nopw %cs:0x0(%rax,%rax,1)
 58d:	00 00 00 00 
 591:	66 66 2e 0f 1f 84 00 	data16 nopw %cs:0x0(%rax,%rax,1)
 598:	00 00 00 00 
 59c:	66 66 2e 0f 1f 84 00 	data16 nopw %cs:0x0(%rax,%rax,1)
 5a3:	00 00 00 00 
 5a7:	66 66 2e 0f 1f 84 00 	data16 nopw %cs:0x0(%rax,%rax,1)
 5ae:	00 00 00 00 
 5b2:	66 66 2e 0f 1f 84 00 	data16 nopw %cs:0x0(%rax,%rax,1)
 5b9:	00 00 00 00 
 5bd:	66 66 2e 0f 1f 84 00 	data16 nopw %cs:0x0(%rax,%rax,1)
 5c4:	00 00 00 00 
 5c8:	66 66 2e 0f 1f 84 00 	data16 nopw %cs:0x0(%rax,%rax,1)
 5cf:	00 00 00 00 
 5d3:	66 66 2e 0f 1f 84 00 	data16 nopw %cs:0x0(%rax,%rax,1)
 5da:	00 00 00 00 
 5de:	66 66 2e 0f 1f 84 00 	data16 nopw %cs:0x0(%rax,%rax,1)
 5e5:	00 00 00 00 
 5e9:	66 66 2e 0f 1f 84 00 	data16 nopw %cs:0x0(%rax,%rax,1)
 5f0:	00 00 00 00 
 5f4:	66 66 2e 0f 1f 84 00 	data16 nopw %cs:0x0(%rax,%rax,1)
 5fb:	00 00 00 00 
 5ff:	66 66 2e 0f 1f 84 00 	data16 nopw %cs:0x0(%rax,%rax,1)
 606:	00 00 00 00 
 60a:	66 66 2e 0f 1f 84 00 	data16 nopw %cs:0x0(%rax,%rax,1)
 611:	00 00 00 00 
 615:	66 66 2e 0f 1f 84 00 	data16 nopw %cs:0x0(%rax,%rax,1)
 61c:	00 00 00 00 
 620:	66 66 2e 0f 1f 84 00 	data16 nopw %cs:0x0(%rax,%rax,1)
 627:	00 00 00 00 
 62b:	66 66 2e 0f 1f 84 00 	data16 nopw %cs:0x0(%rax,%rax,1)
 632:	00 00 00 00 
 636:	66 66 2e 0f 1f 84 00 	data16 nopw %cs:0x0(%rax,%rax,1)
 63d:	00 00 00 00 
 641:	66 66 2e 0f 1f 84 00 	data16 nopw %cs:0x0(%rax,%rax,1)
 648:	00 00 00 00 
 64c:	66 66 2e 0f 1f 84 00 	data16 nopw %cs:0x0(%rax,%rax,1)
 653:	00 00 00 00 
 657:	66 66 2e 0f 1f 84 00 	data16 nopw %cs:0x0(%rax,%rax,1)
 65e:	00 00 00 00 
 662:	66 66 2e 0f 1f 84 00 	data16 nopw %cs:0x0(%rax,%rax,1)
 669:	00 00 00 00 
 66d:	66 66 2e 0f 1f 84 00 	data16 nopw %cs:0x0(%rax,%rax,1)
 674:	00 00 00 00 
 678:	66 66 2e 0f 1f 84 00 	data16 nopw %cs:0x0(%rax,%rax,1)
 67f:	00 00 00 00 
 683:	66 66 2e 0f 1f 84 00 	data16 nopw %cs:0x0(%rax,%rax,1)
 68a:	00 00 00 00 
 68e:	66 66 2e 0f 1f 84 00 	data16 nopw %cs:0x0(%rax,%rax,1)
 695:	00 00 00 00 
 699:	66 66 2e 0f 1f 84 00 	data16 nopw %cs:0x0(%rax,%rax,1)
 6a0:	00 00 00 00 
 6a4:	66 66 2e 0f 1f 84 00 	data16 nopw %cs:0x0(%rax,%rax,1)
 6ab:	00 00 00 00 
 6af:	66 66 2e 0f 1f 84 00 	data16 nopw %cs:0x0(%rax,%rax,1)
 6b6:	00 00 00 00 
 6ba:	66 66 2e 0f 1f 84 00 	data16 nopw %cs:0x0(%rax,%rax,1)
 6c1:	00 00 00 00 
 6c5:	66 66 2e 0f 1f 84 00 	data16 nopw %cs:0x0(%rax,%rax,1)
 6cc:	00 00 00 00 
 6d0:	66 66 2e 0f 1f 84 00 	data16 nopw %cs:0x0(%rax,%rax,1)
 6d7:	00 00 00 00 
 6db:	66 66 2e 0f 1f 84 00 	data16 nopw %cs:0x0(%rax,%rax,1)
 6e2:	00 00 00 00 
 6e6:	66 66 2e 0f 1f 84 00 	data16 nopw %cs:0x0(%rax,%rax,1)
 6ed:	00 00 00 00 
 6f1:	66 66 2e 0f 1f 84 00 	data16 nopw %cs:0x0(%rax,%rax,1)
 6f8:	00 00 00 00 
 6fc:	66 66 2e 0f 1f 84 00 	data16 nopw %cs:0x0(%rax,%rax,1)
 703:	00 00 00 00 
 707:	66 66 2e 0f 1f 84 00 	data16 nopw %cs:0x0(%rax,%rax,1)
 70e:	00 00 00 00 
 712:	66 66 2e 0f 1f 84 00 	data16 nopw %cs:0x0(%rax,%rax,1)
 719:	00 00 00 00 
 71d:	66 66 2e 0f 1f 84 00 	data16 nopw %cs:0x0(%rax,%rax,1)
 724:	00 00 00 00 
 728:	66 66 2e 0f 1f 84 00 	data16 nopw %cs:0x0(%rax,%rax,1)
 72f:	00 00 00 00 
 733:	66 66 2e 0f 1f 84 00 	data16 nopw %cs:0x0(%rax,%rax,1)
 73a:	00 00 00 00 
 73e:	66 66 2e 0f 1f 84 00 	data16 nopw %cs:0x0(%rax,%rax,1)
 745:	00 00 00 00 
 749:	66 66 2e 0f 1f 84 00 	data16 nopw %cs:0x0(%rax,%rax,1)
 750:	00 00 00 00 
 754:	66 66 2e 0f 1f 84 00 	data16 nopw %cs:0x0(%rax,%rax,1)
 75b:	00 00 00 00 
 75f:	66 66 2e 0f 1f 84 00 	data16 nopw %cs:0x0(%rax,%rax,1)
 766:	00 00 00 00 
 76a:	66 66 2e 0f 1f 84 00 	data16 nopw %cs:0x0(%rax,%rax,1)
 771:	00 00 00 00 
 775:	66 66 2e 0f 1f 84 00 	data16 nopw %cs:0x0(%rax,%rax,1)
 77c:	00 00 00 00 
 780:	66 66 2e 0f 1f 84 00 	data16 nopw %cs:0x0(%rax,%rax,1)
 787:	00 00 00 00 
 78b:	66 66 2e 0f 1f 84 00 	data16 nopw %cs:0x0(%rax,%rax,1)
 792:	00 00 00 00 
 796:	66 66 2e 0f 1f 84 00 	data16 nopw %cs:0x0(%rax,%rax,1)
 79d:	00 00 00 00 
 7a1:	66 66 2e 0f 1f 84 00 	data16 nopw %cs:0x0(%rax,%rax,1)
 7a8:	00 00 00 00 
 7ac:	66 66 2e 0f 1f 84 00 	data16 nopw %cs:0x0(%rax,%rax,1)
 7b3:	00 00 00 00 
 7b7:	66 66 2e 0f 1f 84 00 	data16 nopw %cs:0x0(%rax,%rax,1)
 7be:	00 00 00 00 
 7c2:	66 66 2e 0f 1f 84 00 	data16 nopw %cs:0x0(%rax,%rax,1)
 7c9:	00 00 00 00 
 7cd:	66 66 2e 0f 1f 84 00 	data16 nopw %cs:0x0(%rax,%rax,1)
 7d4:	00 00 00 00 
 7d8:	66 66 2e 0f 1f 84 00 	data16 nopw %cs:0x0(%rax,%rax,1)
 7df:	00 00 00 00 
 7e3:	66 66 2e 0f 1f 84 00 	data16 nopw %cs:0x0(%rax,%rax,1)
 7ea:	00 00 00 00 
 7ee:	66 66 2e 0f 1f 84 00 	data16 nopw %cs:0x0(%rax,%rax,1)
 7f5:	00 00 00 00 
 7f9:	0f 1f 80 00 00 00 00 	nopl   0x0(%rax)

0000000000000800 <MEMCPY>:
 800:	48 89 f8             	mov    %rdi,%rax
 803:	48 83 fa 20          	cmp    $0x20,%rdx
 807:	0f 82 93 00 00 00    	jb     8a0 <MEMCPY+0xa0>
 80d:	62 e1 fe 28 6f 06    	vmovdqu64 (%rsi),%ymm16
 813:	90                   	nop
 814:	48 83 fa 40          	cmp    $0x40,%rdx
 818:	0f 87 b2 00 00 00    	ja     8d0 <MEMCPY+0xd0>
 81e:	62 61 fe 28 6f 7c 16 	vmovdqu64 -0x20(%rsi,%rdx,1),%ymm31
 825:	ff 
 826:	62 e1 fe 28 7f 07    	vmovdqu64 %ymm16,(%rdi)
 82c:	62 61 fe 28 7f 7c 17 	vmovdqu64 %ymm31,-0x20(%rdi,%rdx,1)
 833:	ff 
 834:	c3                   	retq   
 835:	66 66 2e 0f 1f 84 00 	data16 nopw %cs:0x0(%rax,%rax,1)
 83c:	00 00 00 00 
 840:	83 fa 04             	cmp    $0x4,%edx
 843:	73 2b                	jae    870 <MEMCPY+0x70>
 845:	83 fa 01             	cmp    $0x1,%edx
 848:	74 13                	je     85d <MEMCPY+0x5d>
 84a:	72 10                	jb     85c <MEMCPY+0x5c>
 84c:	0f b7 0e             	movzwl (%rsi),%ecx
 84f:	0f b6 74 16 ff       	movzbl -0x1(%rsi,%rdx,1),%esi
 854:	66 89 0f             	mov    %cx,(%rdi)
 857:	40 88 74 17 ff       	mov    %sil,-0x1(%rdi,%rdx,1)
 85c:	c3                   	retq   
 85d:	0f b6 0e             	movzbl (%rsi),%ecx
 860:	88 0f                	mov    %cl,(%rdi)
 862:	c3                   	retq   
 863:	66 66 2e 0f 1f 84 00 	data16 nopw %cs:0x0(%rax,%rax,1)
 86a:	00 00 00 00 
 86e:	66 90                	xchg   %ax,%ax
 870:	8b 0e                	mov    (%rsi),%ecx
 872:	8b 74 16 fc          	mov    -0x4(%rsi,%rdx,1),%esi
 876:	89 0f                	mov    %ecx,(%rdi)
 878:	89 74 17 fc          	mov    %esi,-0x4(%rdi,%rdx,1)
 87c:	c3                   	retq   
 87d:	0f 1f 00             	nopl   (%rax)
 880:	48 8b 0e             	mov    (%rsi),%rcx
 883:	48 8b 74 16 f8       	mov    -0x8(%rsi,%rdx,1),%rsi
 888:	48 89 0f             	mov    %rcx,(%rdi)
 88b:	48 89 74 17 f8       	mov    %rsi,-0x8(%rdi,%rdx,1)
 890:	c3                   	retq   
 891:	66 66 2e 0f 1f 84 00 	data16 nopw %cs:0x0(%rax,%rax,1)
 898:	00 00 00 00 
 89c:	0f 1f 40 00          	nopl   0x0(%rax)
 8a0:	83 fa 08             	cmp    $0x8,%edx
 8a3:	72 9b                	jb     840 <MEMCPY+0x40>
 8a5:	83 fa 10             	cmp    $0x10,%edx
 8a8:	72 d6                	jb     880 <MEMCPY+0x80>
 8aa:	c5 fa 6f 06          	vmovdqu (%rsi),%xmm0
 8ae:	c5 fa 6f 4c 16 f0    	vmovdqu -0x10(%rsi,%rdx,1),%xmm1
 8b4:	c5 fa 7f 07          	vmovdqu %xmm0,(%rdi)
 8b8:	c5 fa 7f 4c 17 f0    	vmovdqu %xmm1,-0x10(%rdi,%rdx,1)
 8be:	c3                   	retq   
 8bf:	66 66 66 0f 1f 84 00 	data16 data16 nopw 0x0(%rax,%rax,1)
 8c6:	00 00 00 00 
 8ca:	0f 1f 44 00 00       	nopl   0x0(%rax,%rax,1)
 8cf:	90                   	nop
 8d0:	62 e1 fe 28 6f 4e 01 	vmovdqu64 0x20(%rsi),%ymm17
 8d7:	48 81 fa 00 01 00 00 	cmp    $0x100,%rdx
 8de:	0f 87 ac 00 00 00    	ja     990 <MEMCPY+0x190>
 8e4:	62 61 fe 28 6f 7c 16 	vmovdqu64 -0x20(%rsi,%rdx,1),%ymm31
 8eb:	ff 
 8ec:	62 61 fe 28 6f 74 16 	vmovdqu64 -0x40(%rsi,%rdx,1),%ymm30
 8f3:	fe 
 8f4:	81 fa 80 00 00 00    	cmp    $0x80,%edx
 8fa:	76 64                	jbe    960 <MEMCPY+0x160>
 8fc:	62 e1 fe 28 6f 56 02 	vmovdqu64 0x40(%rsi),%ymm18
 903:	62 e1 fe 28 6f 5e 03 	vmovdqu64 0x60(%rsi),%ymm19
 90a:	62 61 fe 28 6f 6c 16 	vmovdqu64 -0x60(%rsi,%rdx,1),%ymm29
 911:	fd 
 912:	62 61 fe 28 6f 64 16 	vmovdqu64 -0x80(%rsi,%rdx,1),%ymm28
 919:	fc 
 91a:	62 e1 fe 28 7f 07    	vmovdqu64 %ymm16,(%rdi)
 920:	62 e1 fe 28 7f 4f 01 	vmovdqu64 %ymm17,0x20(%rdi)
 927:	62 e1 fe 28 7f 57 02 	vmovdqu64 %ymm18,0x40(%rdi)
 92e:	62 e1 fe 28 7f 5f 03 	vmovdqu64 %ymm19,0x60(%rdi)
 935:	62 61 fe 28 7f 7c 17 	vmovdqu64 %ymm31,-0x20(%rdi,%rdx,1)
 93c:	ff 
 93d:	62 61 fe 28 7f 74 17 	vmovdqu64 %ymm30,-0x40(%rdi,%rdx,1)
 944:	fe 
 945:	62 61 fe 28 7f 6c 17 	vmovdqu64 %ymm29,-0x60(%rdi,%rdx,1)
 94c:	fd 
 94d:	62 61 fe 28 7f 64 17 	vmovdqu64 %ymm28,-0x80(%rdi,%rdx,1)
 954:	fc 
 955:	c3                   	retq   
 956:	66 2e 0f 1f 84 00 00 	nopw   %cs:0x0(%rax,%rax,1)
 95d:	00 00 00 
 960:	62 e1 fe 28 7f 07    	vmovdqu64 %ymm16,(%rdi)
 966:	62 e1 fe 28 7f 4f 01 	vmovdqu64 %ymm17,0x20(%rdi)
 96d:	62 61 fe 28 7f 7c 17 	vmovdqu64 %ymm31,-0x20(%rdi,%rdx,1)
 974:	ff 
 975:	62 61 fe 28 7f 74 17 	vmovdqu64 %ymm30,-0x40(%rdi,%rdx,1)
 97c:	fe 
 97d:	c3                   	retq   
 97e:	66 66 66 0f 1f 84 00 	data16 data16 nopw 0x0(%rax,%rax,1)
 985:	00 00 00 00 
 989:	0f 1f 44 00 00       	nopl   0x0(%rax,%rax,1)
 98e:	66 90                	xchg   %ax,%ax
 990:	48 3b 15 00 00 00 00 	cmp    0x0(%rip),%rdx        # 997 <MEMCPY+0x197>
 997:	0f 87 63 01 00 00    	ja     b00 <MEMCPY+0x300>
 99d:	62 61 fe 28 6f 7c 16 	vmovdqu64 -0x20(%rsi,%rdx,1),%ymm31
 9a4:	ff 
 9a5:	62 61 fe 28 6f 74 16 	vmovdqu64 -0x40(%rsi,%rdx,1),%ymm30
 9ac:	fe 
 9ad:	0f 1f 00             	nopl   (%rax)
 9b0:	48 39 f7             	cmp    %rsi,%rdi
 9b3:	0f 87 b7 00 00 00    	ja     a70 <MEMCPY+0x270>
 9b9:	74 c2                	je     97d <MEMCPY+0x17d>
 9bb:	62 61 fe 28 6f 6c 16 	vmovdqu64 -0x60(%rsi,%rdx,1),%ymm29
 9c2:	fd 
 9c3:	62 61 fe 28 6f 64 16 	vmovdqu64 -0x80(%rsi,%rdx,1),%ymm28
 9ca:	fc 
 9cb:	48 29 fe             	sub    %rdi,%rsi
 9ce:	48 8d 54 17 80       	lea    -0x80(%rdi,%rdx,1),%rdx
 9d3:	48 83 cf 3f          	or     $0x3f,%rdi
 9d7:	48 8d 74 37 01       	lea    0x1(%rdi,%rsi,1),%rsi
 9dc:	48 ff c7             	inc    %rdi
 9df:	90                   	nop
 9e0:	62 e1 fe 28 6f 26    	vmovdqu64 (%rsi),%ymm20
 9e6:	62 e1 fe 28 6f 6e 01 	vmovdqu64 0x20(%rsi),%ymm21
 9ed:	62 e1 fe 28 6f 76 02 	vmovdqu64 0x40(%rsi),%ymm22
 9f4:	62 e1 fe 28 6f 7e 03 	vmovdqu64 0x60(%rsi),%ymm23
 9fb:	48 83 ee 80          	sub    $0xffffffffffffff80,%rsi
 9ff:	62 e1 fd 28 7f 27    	vmovdqa64 %ymm20,(%rdi)
 a05:	62 e1 fd 28 7f 6f 01 	vmovdqa64 %ymm21,0x20(%rdi)
 a0c:	62 e1 fd 28 7f 77 02 	vmovdqa64 %ymm22,0x40(%rdi)
 a13:	62 e1 fd 28 7f 7f 03 	vmovdqa64 %ymm23,0x60(%rdi)
 a1a:	48 83 ef 80          	sub    $0xffffffffffffff80,%rdi
 a1e:	48 39 fa             	cmp    %rdi,%rdx
 a21:	77 bd                	ja     9e0 <MEMCPY+0x1e0>
 a23:	62 61 fe 28 7f 22    	vmovdqu64 %ymm28,(%rdx)
 a29:	62 61 fe 28 7f 6a 01 	vmovdqu64 %ymm29,0x20(%rdx)
 a30:	62 61 fe 28 7f 72 02 	vmovdqu64 %ymm30,0x40(%rdx)
 a37:	62 61 fe 28 7f 7a 03 	vmovdqu64 %ymm31,0x60(%rdx)
 a3e:	62 e1 fe 28 7f 00    	vmovdqu64 %ymm16,(%rax)
 a44:	62 e1 fe 28 7f 48 01 	vmovdqu64 %ymm17,0x20(%rax)
 a4b:	c3                   	retq   
 a4c:	0f 1f 40 00          	nopl   0x0(%rax)
 a50:	66 66 66 0f 1f 84 00 	data16 data16 nopw 0x0(%rax,%rax,1)
 a57:	00 00 00 00 
 a5b:	0f 1f 44 00 00       	nopl   0x0(%rax,%rax,1)
 a60:	62 61 fe 28 6f 7c 16 	vmovdqu64 -0x20(%rsi,%rdx,1),%ymm31
 a67:	ff 
 a68:	62 61 fe 28 6f 74 16 	vmovdqu64 -0x40(%rsi,%rdx,1),%ymm30
 a6f:	fe 
 a70:	62 e1 fe 28 6f 56 02 	vmovdqu64 0x40(%rsi),%ymm18
 a77:	62 e1 fe 28 6f 5e 03 	vmovdqu64 0x60(%rsi),%ymm19
 a7e:	48 29 fe             	sub    %rdi,%rsi
 a81:	48 8d bc 17 7f ff ff 	lea    -0x81(%rdi,%rdx,1),%rdi
 a88:	ff 
 a89:	48 83 e7 c0          	and    $0xffffffffffffffc0,%rdi
 a8d:	48 01 fe             	add    %rdi,%rsi
 a90:	62 e1 fe 28 6f 66 03 	vmovdqu64 0x60(%rsi),%ymm20
 a97:	62 e1 fe 28 6f 6e 02 	vmovdqu64 0x40(%rsi),%ymm21
 a9e:	62 e1 fe 28 6f 76 01 	vmovdqu64 0x20(%rsi),%ymm22
 aa5:	62 e1 fe 28 6f 3e    	vmovdqu64 (%rsi),%ymm23
 aab:	48 83 c6 80          	add    $0xffffffffffffff80,%rsi
 aaf:	62 e1 fd 28 7f 67 03 	vmovdqa64 %ymm20,0x60(%rdi)
 ab6:	62 e1 fd 28 7f 6f 02 	vmovdqa64 %ymm21,0x40(%rdi)
 abd:	62 e1 fd 28 7f 77 01 	vmovdqa64 %ymm22,0x20(%rdi)
 ac4:	62 e1 fd 28 7f 3f    	vmovdqa64 %ymm23,(%rdi)
 aca:	48 83 c7 80          	add    $0xffffffffffffff80,%rdi
 ace:	48 39 f8             	cmp    %rdi,%rax
 ad1:	72 bd                	jb     a90 <MEMCPY+0x290>
 ad3:	62 e1 fe 28 7f 58 03 	vmovdqu64 %ymm19,0x60(%rax)
 ada:	62 e1 fe 28 7f 50 02 	vmovdqu64 %ymm18,0x40(%rax)
 ae1:	62 e1 fe 28 7f 48 01 	vmovdqu64 %ymm17,0x20(%rax)
 ae8:	62 e1 fe 28 7f 00    	vmovdqu64 %ymm16,(%rax)
 aee:	62 61 fe 28 7f 74 10 	vmovdqu64 %ymm30,-0x40(%rax,%rdx,1)
 af5:	fe 
 af6:	62 61 fe 28 7f 7c 10 	vmovdqu64 %ymm31,-0x20(%rax,%rdx,1)
 afd:	ff 
 afe:	c3                   	retq   
 aff:	90                   	nop
 b00:	c3                   	retq   
