
/home/noah/tmp/objdumps/memcpy-dev-small5-2021-10-17-T15-33-19.o:     file format elf64-x86-64


Disassembly of section .text.evex:

0000000000000000 <MEMCPY-0x200>:
   0:	90                   	nop
   1:	e9 fa 01 00 00       	jmpq   200 <MEMCPY>
   6:	66 66 2e 0f 1f 84 00 	data16 nopw %cs:0x0(%rax,%rax,1)
   d:	00 00 00 00 
  11:	66 66 2e 0f 1f 84 00 	data16 nopw %cs:0x0(%rax,%rax,1)
  18:	00 00 00 00 
  1c:	66 66 2e 0f 1f 84 00 	data16 nopw %cs:0x0(%rax,%rax,1)
  23:	00 00 00 00 
  27:	66 66 2e 0f 1f 84 00 	data16 nopw %cs:0x0(%rax,%rax,1)
  2e:	00 00 00 00 
  32:	66 66 2e 0f 1f 84 00 	data16 nopw %cs:0x0(%rax,%rax,1)
  39:	00 00 00 00 
  3d:	66 66 2e 0f 1f 84 00 	data16 nopw %cs:0x0(%rax,%rax,1)
  44:	00 00 00 00 
  48:	66 66 2e 0f 1f 84 00 	data16 nopw %cs:0x0(%rax,%rax,1)
  4f:	00 00 00 00 
  53:	66 66 2e 0f 1f 84 00 	data16 nopw %cs:0x0(%rax,%rax,1)
  5a:	00 00 00 00 
  5e:	66 66 2e 0f 1f 84 00 	data16 nopw %cs:0x0(%rax,%rax,1)
  65:	00 00 00 00 
  69:	66 66 2e 0f 1f 84 00 	data16 nopw %cs:0x0(%rax,%rax,1)
  70:	00 00 00 00 
  74:	66 66 2e 0f 1f 84 00 	data16 nopw %cs:0x0(%rax,%rax,1)
  7b:	00 00 00 00 
  7f:	66 66 2e 0f 1f 84 00 	data16 nopw %cs:0x0(%rax,%rax,1)
  86:	00 00 00 00 
  8a:	66 66 2e 0f 1f 84 00 	data16 nopw %cs:0x0(%rax,%rax,1)
  91:	00 00 00 00 
  95:	66 66 2e 0f 1f 84 00 	data16 nopw %cs:0x0(%rax,%rax,1)
  9c:	00 00 00 00 
  a0:	66 66 2e 0f 1f 84 00 	data16 nopw %cs:0x0(%rax,%rax,1)
  a7:	00 00 00 00 
  ab:	66 66 2e 0f 1f 84 00 	data16 nopw %cs:0x0(%rax,%rax,1)
  b2:	00 00 00 00 
  b6:	66 66 2e 0f 1f 84 00 	data16 nopw %cs:0x0(%rax,%rax,1)
  bd:	00 00 00 00 
  c1:	66 66 2e 0f 1f 84 00 	data16 nopw %cs:0x0(%rax,%rax,1)
  c8:	00 00 00 00 
  cc:	66 66 2e 0f 1f 84 00 	data16 nopw %cs:0x0(%rax,%rax,1)
  d3:	00 00 00 00 
  d7:	66 66 2e 0f 1f 84 00 	data16 nopw %cs:0x0(%rax,%rax,1)
  de:	00 00 00 00 
  e2:	66 66 2e 0f 1f 84 00 	data16 nopw %cs:0x0(%rax,%rax,1)
  e9:	00 00 00 00 
  ed:	66 66 2e 0f 1f 84 00 	data16 nopw %cs:0x0(%rax,%rax,1)
  f4:	00 00 00 00 
  f8:	66 66 2e 0f 1f 84 00 	data16 nopw %cs:0x0(%rax,%rax,1)
  ff:	00 00 00 00 
 103:	66 66 2e 0f 1f 84 00 	data16 nopw %cs:0x0(%rax,%rax,1)
 10a:	00 00 00 00 
 10e:	66 66 2e 0f 1f 84 00 	data16 nopw %cs:0x0(%rax,%rax,1)
 115:	00 00 00 00 
 119:	66 66 2e 0f 1f 84 00 	data16 nopw %cs:0x0(%rax,%rax,1)
 120:	00 00 00 00 
 124:	66 66 2e 0f 1f 84 00 	data16 nopw %cs:0x0(%rax,%rax,1)
 12b:	00 00 00 00 
 12f:	66 66 2e 0f 1f 84 00 	data16 nopw %cs:0x0(%rax,%rax,1)
 136:	00 00 00 00 
 13a:	66 66 2e 0f 1f 84 00 	data16 nopw %cs:0x0(%rax,%rax,1)
 141:	00 00 00 00 
 145:	66 66 2e 0f 1f 84 00 	data16 nopw %cs:0x0(%rax,%rax,1)
 14c:	00 00 00 00 
 150:	66 66 2e 0f 1f 84 00 	data16 nopw %cs:0x0(%rax,%rax,1)
 157:	00 00 00 00 
 15b:	66 66 2e 0f 1f 84 00 	data16 nopw %cs:0x0(%rax,%rax,1)
 162:	00 00 00 00 
 166:	66 66 2e 0f 1f 84 00 	data16 nopw %cs:0x0(%rax,%rax,1)
 16d:	00 00 00 00 
 171:	66 66 2e 0f 1f 84 00 	data16 nopw %cs:0x0(%rax,%rax,1)
 178:	00 00 00 00 
 17c:	66 66 2e 0f 1f 84 00 	data16 nopw %cs:0x0(%rax,%rax,1)
 183:	00 00 00 00 
 187:	66 66 2e 0f 1f 84 00 	data16 nopw %cs:0x0(%rax,%rax,1)
 18e:	00 00 00 00 
 192:	66 66 2e 0f 1f 84 00 	data16 nopw %cs:0x0(%rax,%rax,1)
 199:	00 00 00 00 
 19d:	66 66 2e 0f 1f 84 00 	data16 nopw %cs:0x0(%rax,%rax,1)
 1a4:	00 00 00 00 
 1a8:	66 66 2e 0f 1f 84 00 	data16 nopw %cs:0x0(%rax,%rax,1)
 1af:	00 00 00 00 
 1b3:	66 66 2e 0f 1f 84 00 	data16 nopw %cs:0x0(%rax,%rax,1)
 1ba:	00 00 00 00 
 1be:	66 66 2e 0f 1f 84 00 	data16 nopw %cs:0x0(%rax,%rax,1)
 1c5:	00 00 00 00 
 1c9:	66 66 2e 0f 1f 84 00 	data16 nopw %cs:0x0(%rax,%rax,1)
 1d0:	00 00 00 00 
 1d4:	66 66 2e 0f 1f 84 00 	data16 nopw %cs:0x0(%rax,%rax,1)
 1db:	00 00 00 00 
 1df:	66 66 2e 0f 1f 84 00 	data16 nopw %cs:0x0(%rax,%rax,1)
 1e6:	00 00 00 00 
 1ea:	66 66 2e 0f 1f 84 00 	data16 nopw %cs:0x0(%rax,%rax,1)
 1f1:	00 00 00 00 
 1f5:	66 66 2e 0f 1f 84 00 	data16 nopw %cs:0x0(%rax,%rax,1)
 1fc:	00 00 00 00 

0000000000000200 <MEMCPY>:
 200:	0f 1f 40 00          	nopl   0x0(%rax)
 204:	48 89 f8             	mov    %rdi,%rax

0000000000000207 <Lstart_erms>:
 207:	48 83 fa 20          	cmp    $0x20,%rdx
 20b:	72 23                	jb     230 <Lless_vec>
 20d:	c5 fe 6f 26          	vmovdqu (%rsi),%ymm4
 211:	48 83 fa 40          	cmp    $0x40,%rdx
 215:	0f 87 a5 00 00 00    	ja     2c0 <Lmovsb_more_2x_vec>

000000000000021b <Llast_2x_vec>:
 21b:	c5 fe 6f 4c 16 e0    	vmovdqu -0x20(%rsi,%rdx,1),%ymm1
 221:	c5 fe 7f 27          	vmovdqu %ymm4,(%rdi)
 225:	c5 fe 7f 4c 17 e0    	vmovdqu %ymm1,-0x20(%rdi,%rdx,1)

000000000000022b <Lreturn>:
 22b:	c5 f8 77             	vzeroupper 
 22e:	c3                   	retq   
 22f:	90                   	nop

0000000000000230 <Lless_vec>:
 230:	83 fa 10             	cmp    $0x10,%edx
 233:	73 2e                	jae    263 <Lbetween_16_31>
 235:	83 fa 08             	cmp    $0x8,%edx
 238:	73 46                	jae    280 <Lbetween_8_15>
 23a:	83 fa 04             	cmp    $0x4,%edx
 23d:	73 17                	jae    256 <Lbetween_4_7>
 23f:	83 fa 01             	cmp    $0x1,%edx
 242:	72 11                	jb     255 <Lcopy_0>
 244:	0f b6 0e             	movzbl (%rsi),%ecx
 247:	74 0a                	je     253 <Lcopy_1>
 249:	0f b7 74 16 fe       	movzwl -0x2(%rsi,%rdx,1),%esi
 24e:	66 89 74 17 fe       	mov    %si,-0x2(%rdi,%rdx,1)

0000000000000253 <Lcopy_1>:
 253:	88 0f                	mov    %cl,(%rdi)

0000000000000255 <Lcopy_0>:
 255:	c3                   	retq   

0000000000000256 <Lbetween_4_7>:
 256:	8b 4c 16 fc          	mov    -0x4(%rsi,%rdx,1),%ecx
 25a:	8b 36                	mov    (%rsi),%esi
 25c:	89 4c 17 fc          	mov    %ecx,-0x4(%rdi,%rdx,1)
 260:	89 37                	mov    %esi,(%rdi)
 262:	c3                   	retq   

0000000000000263 <Lbetween_16_31>:
 263:	c5 fa 6f 06          	vmovdqu (%rsi),%xmm0
 267:	c5 fa 6f 4c 16 f0    	vmovdqu -0x10(%rsi,%rdx,1),%xmm1
 26d:	c5 fa 7f 07          	vmovdqu %xmm0,(%rdi)
 271:	c5 fa 7f 4c 17 f0    	vmovdqu %xmm1,-0x10(%rdi,%rdx,1)
 277:	c3                   	retq   
 278:	0f 1f 84 00 00 00 00 	nopl   0x0(%rax,%rax,1)
 27f:	00 

0000000000000280 <Lbetween_8_15>:
 280:	48 8b 4c 16 f8       	mov    -0x8(%rsi,%rdx,1),%rcx
 285:	48 8b 36             	mov    (%rsi),%rsi
 288:	48 89 4c 17 f8       	mov    %rcx,-0x8(%rdi,%rdx,1)
 28d:	48 89 37             	mov    %rsi,(%rdi)
 290:	c3                   	retq   

0000000000000291 <Llast_4x_vec>:
 291:	c5 fe 6f 54 16 e0    	vmovdqu -0x20(%rsi,%rdx,1),%ymm2
 297:	c5 fe 6f 5c 16 c0    	vmovdqu -0x40(%rsi,%rdx,1),%ymm3
 29d:	c5 fe 7f 27          	vmovdqu %ymm4,(%rdi)
 2a1:	c5 fe 7f 4f 20       	vmovdqu %ymm1,0x20(%rdi)
 2a6:	c5 fe 7f 54 17 e0    	vmovdqu %ymm2,-0x20(%rdi,%rdx,1)
 2ac:	c5 fe 7f 5c 17 c0    	vmovdqu %ymm3,-0x40(%rdi,%rdx,1)
 2b2:	c5 f8 77             	vzeroupper 
 2b5:	c3                   	retq   
 2b6:	66 2e 0f 1f 84 00 00 	nopw   %cs:0x0(%rax,%rax,1)
 2bd:	00 00 00 

00000000000002c0 <Lmovsb_more_2x_vec>:
 2c0:	48 81 fa 00 10 00 00 	cmp    $0x1000,%rdx
 2c7:	0f 87 f3 01 00 00    	ja     4c0 <Lmovsb>

00000000000002cd <Lmore_2x_vec>:
 2cd:	48 81 fa 00 01 00 00 	cmp    $0x100,%rdx
 2d4:	77 5f                	ja     335 <Lmore_8x_vec>
 2d6:	c5 fe 6f 4e 20       	vmovdqu 0x20(%rsi),%ymm1
 2db:	48 81 fa 80 00 00 00 	cmp    $0x80,%rdx
 2e2:	76 ad                	jbe    291 <Llast_4x_vec>
 2e4:	c5 fe 6f 56 40       	vmovdqu 0x40(%rsi),%ymm2
 2e9:	c5 fe 6f 5e 60       	vmovdqu 0x60(%rsi),%ymm3
 2ee:	c5 fe 6f 44 16 e0    	vmovdqu -0x20(%rsi,%rdx,1),%ymm0
 2f4:	c5 fe 6f 6c 16 c0    	vmovdqu -0x40(%rsi,%rdx,1),%ymm5
 2fa:	c5 fe 6f 74 16 a0    	vmovdqu -0x60(%rsi,%rdx,1),%ymm6
 300:	c5 fe 6f 7c 16 80    	vmovdqu -0x80(%rsi,%rdx,1),%ymm7
 306:	c5 fe 7f 27          	vmovdqu %ymm4,(%rdi)
 30a:	c5 fe 7f 4f 20       	vmovdqu %ymm1,0x20(%rdi)
 30f:	c5 fe 7f 57 40       	vmovdqu %ymm2,0x40(%rdi)
 314:	c5 fe 7f 5f 60       	vmovdqu %ymm3,0x60(%rdi)
 319:	c5 fe 7f 44 17 e0    	vmovdqu %ymm0,-0x20(%rdi,%rdx,1)
 31f:	c5 fe 7f 6c 17 c0    	vmovdqu %ymm5,-0x40(%rdi,%rdx,1)
 325:	c5 fe 7f 74 17 a0    	vmovdqu %ymm6,-0x60(%rdi,%rdx,1)
 32b:	c5 fe 7f 7c 17 80    	vmovdqu %ymm7,-0x80(%rdi,%rdx,1)
 331:	c5 f8 77             	vzeroupper 
 334:	c3                   	retq   

0000000000000335 <Lmore_8x_vec>:
 335:	48 89 f9             	mov    %rdi,%rcx
 338:	48 29 f1             	sub    %rsi,%rcx
 33b:	48 39 d1             	cmp    %rdx,%rcx
 33e:	0f 82 ac 00 00 00    	jb     3f0 <Lmore_8x_vec_backward_check_nop>
 344:	48 81 fa 00 00 10 00 	cmp    $0x100000,%rdx
 34b:	0f 87 dc 01 00 00    	ja     52d <Llarge_memcpy_2x>

0000000000000351 <Lmore_8x_vec_check>:
 351:	4c 8d 04 11          	lea    (%rcx,%rdx,1),%r8
 355:	49 31 c8             	xor    %rcx,%r8
 358:	49 c1 e8 3f          	shr    $0x3f,%r8
 35c:	81 e1 00 0f 00 00    	and    $0xf00,%ecx
 362:	44 01 c1             	add    %r8d,%ecx
 365:	0f 84 8a 00 00 00    	je     3f5 <Lmore_8x_vec_backward>

000000000000036b <Lmore_8x_vec_forward>:
 36b:	c5 fe 6f 6c 16 e0    	vmovdqu -0x20(%rsi,%rdx,1),%ymm5
 371:	c5 fe 6f 74 16 c0    	vmovdqu -0x40(%rsi,%rdx,1),%ymm6
 377:	48 89 f9             	mov    %rdi,%rcx
 37a:	48 83 cf 1f          	or     $0x1f,%rdi
 37e:	c5 fe 6f 7c 16 a0    	vmovdqu -0x60(%rsi,%rdx,1),%ymm7
 384:	c5 7e 6f 44 16 80    	vmovdqu -0x80(%rsi,%rdx,1),%ymm8
 38a:	48 29 ce             	sub    %rcx,%rsi
 38d:	48 ff c7             	inc    %rdi
 390:	48 01 fe             	add    %rdi,%rsi
 393:	48 8d 54 11 80       	lea    -0x80(%rcx,%rdx,1),%rdx
 398:	0f 1f 84 00 00 00 00 	nopl   0x0(%rax,%rax,1)
 39f:	00 

00000000000003a0 <Lloop_4x_vec_forward>:
 3a0:	c5 fe 6f 06          	vmovdqu (%rsi),%ymm0
 3a4:	c5 fe 6f 4e 20       	vmovdqu 0x20(%rsi),%ymm1
 3a9:	c5 fe 6f 56 40       	vmovdqu 0x40(%rsi),%ymm2
 3ae:	c5 fe 6f 5e 60       	vmovdqu 0x60(%rsi),%ymm3
 3b3:	48 83 ee 80          	sub    $0xffffffffffffff80,%rsi
 3b7:	c5 fd 7f 07          	vmovdqa %ymm0,(%rdi)
 3bb:	c5 fd 7f 4f 20       	vmovdqa %ymm1,0x20(%rdi)
 3c0:	c5 fd 7f 57 40       	vmovdqa %ymm2,0x40(%rdi)
 3c5:	c5 fd 7f 5f 60       	vmovdqa %ymm3,0x60(%rdi)
 3ca:	48 83 ef 80          	sub    $0xffffffffffffff80,%rdi
 3ce:	48 39 fa             	cmp    %rdi,%rdx
 3d1:	77 cd                	ja     3a0 <Lloop_4x_vec_forward>
 3d3:	c5 fe 7f 6a 60       	vmovdqu %ymm5,0x60(%rdx)
 3d8:	c5 fe 7f 72 40       	vmovdqu %ymm6,0x40(%rdx)
 3dd:	c5 fe 7f 7a 20       	vmovdqu %ymm7,0x20(%rdx)
 3e2:	c5 7e 7f 02          	vmovdqu %ymm8,(%rdx)
 3e6:	c5 fe 7f 21          	vmovdqu %ymm4,(%rcx)

00000000000003ea <Lnop_backward>:
 3ea:	c5 f8 77             	vzeroupper 
 3ed:	c3                   	retq   
 3ee:	66 90                	xchg   %ax,%ax

00000000000003f0 <Lmore_8x_vec_backward_check_nop>:
 3f0:	48 85 c9             	test   %rcx,%rcx
 3f3:	74 f5                	je     3ea <Lnop_backward>

00000000000003f5 <Lmore_8x_vec_backward>:
 3f5:	c5 fe 6f 6e 20       	vmovdqu 0x20(%rsi),%ymm5
 3fa:	c5 fe 6f 76 40       	vmovdqu 0x40(%rsi),%ymm6
 3ff:	48 8d 8c 17 7f ff ff 	lea    -0x81(%rdi,%rdx,1),%rcx
 406:	ff 
 407:	c5 fe 6f 7e 60       	vmovdqu 0x60(%rsi),%ymm7
 40c:	c5 7e 6f 44 16 e0    	vmovdqu -0x20(%rsi,%rdx,1),%ymm8
 412:	48 29 fe             	sub    %rdi,%rsi
 415:	48 83 e1 e0          	and    $0xffffffffffffffe0,%rcx
 419:	48 01 ce             	add    %rcx,%rsi
 41c:	0f 1f 40 00          	nopl   0x0(%rax)

0000000000000420 <Lloop_4x_vec_backward>:
 420:	c5 fe 6f 46 60       	vmovdqu 0x60(%rsi),%ymm0
 425:	c5 fe 6f 4e 40       	vmovdqu 0x40(%rsi),%ymm1
 42a:	c5 fe 6f 56 20       	vmovdqu 0x20(%rsi),%ymm2
 42f:	c5 fe 6f 1e          	vmovdqu (%rsi),%ymm3
 433:	48 83 c6 80          	add    $0xffffffffffffff80,%rsi
 437:	c5 fd 7f 41 60       	vmovdqa %ymm0,0x60(%rcx)
 43c:	c5 fd 7f 49 40       	vmovdqa %ymm1,0x40(%rcx)
 441:	c5 fd 7f 51 20       	vmovdqa %ymm2,0x20(%rcx)
 446:	c5 fd 7f 19          	vmovdqa %ymm3,(%rcx)
 44a:	48 83 c1 80          	add    $0xffffffffffffff80,%rcx
 44e:	48 39 cf             	cmp    %rcx,%rdi
 451:	72 cd                	jb     420 <Lloop_4x_vec_backward>
 453:	c5 fe 7f 27          	vmovdqu %ymm4,(%rdi)
 457:	c5 fe 7f 6f 20       	vmovdqu %ymm5,0x20(%rdi)
 45c:	c5 fe 7f 77 40       	vmovdqu %ymm6,0x40(%rdi)
 461:	c5 fe 7f 7f 60       	vmovdqu %ymm7,0x60(%rdi)
 466:	c5 7e 7f 44 3a e0    	vmovdqu %ymm8,-0x20(%rdx,%rdi,1)
 46c:	c5 f8 77             	vzeroupper 
 46f:	c3                   	retq   
 470:	66 66 2e 0f 1f 84 00 	data16 nopw %cs:0x0(%rax,%rax,1)
 477:	00 00 00 00 
 47b:	0f 1f 44 00 00       	nopl   0x0(%rax,%rax,1)

0000000000000480 <Lskip_short_movsb_check>:
 480:	c5 fe 6f 6e 20       	vmovdqu 0x20(%rsi),%ymm5
 485:	f7 c1 00 0e 00 00    	test   $0xe00,%ecx
 48b:	75 68                	jne    4f5 <Lmovsb_align_dst>
 48d:	49 89 c9             	mov    %rcx,%r9
 490:	48 8d 4c 16 ff       	lea    -0x1(%rsi,%rdx,1),%rcx
 495:	48 83 ce 3f          	or     $0x3f,%rsi
 499:	4a 8d 7c 0e 01       	lea    0x1(%rsi,%r9,1),%rdi
 49e:	48 29 f1             	sub    %rsi,%rcx
 4a1:	48 ff c6             	inc    %rsi
 4a4:	f3 a4                	rep movsb %ds:(%rsi),%es:(%rdi)
 4a6:	c4 c1 7e 7f 20       	vmovdqu %ymm4,(%r8)
 4ab:	c4 c1 7e 7f 68 20    	vmovdqu %ymm5,0x20(%r8)
 4b1:	c5 f8 77             	vzeroupper 
 4b4:	c3                   	retq   
 4b5:	66 66 2e 0f 1f 84 00 	data16 nopw %cs:0x0(%rax,%rax,1)
 4bc:	00 00 00 00 

00000000000004c0 <Lmovsb>:
 4c0:	48 89 f9             	mov    %rdi,%rcx
 4c3:	48 29 f1             	sub    %rsi,%rcx
 4c6:	48 39 d1             	cmp    %rdx,%rcx
 4c9:	0f 82 21 ff ff ff    	jb     3f0 <Lmore_8x_vec_backward_check_nop>
 4cf:	49 89 f8             	mov    %rdi,%r8
 4d2:	48 81 fa 00 00 10 00 	cmp    $0x100000,%rdx
 4d9:	73 45                	jae    520 <Llarge_memcpy_2x_check>
 4db:	0f 1f 00             	nopl   (%rax)
 4de:	48 81 fa 00 00 10 00 	cmp    $0x100000,%rdx
 4e5:	72 99                	jb     480 <Lskip_short_movsb_check>
 4e7:	83 f9 c0             	cmp    $0xffffffc0,%ecx
 4ea:	0f 87 7b fe ff ff    	ja     36b <Lmore_8x_vec_forward>
 4f0:	c5 fe 6f 6e 20       	vmovdqu 0x20(%rsi),%ymm5

00000000000004f5 <Lmovsb_align_dst>:
 4f5:	48 29 fe             	sub    %rdi,%rsi
 4f8:	48 83 c7 3f          	add    $0x3f,%rdi
 4fc:	49 8d 0c 10          	lea    (%r8,%rdx,1),%rcx
 500:	48 83 e7 c0          	and    $0xffffffffffffffc0,%rdi
 504:	48 01 fe             	add    %rdi,%rsi
 507:	48 29 f9             	sub    %rdi,%rcx
 50a:	f3 a4                	rep movsb %ds:(%rsi),%es:(%rdi)
 50c:	c4 c1 7e 7f 20       	vmovdqu %ymm4,(%r8)
 511:	c4 c1 7e 7f 68 20    	vmovdqu %ymm5,0x20(%r8)
 517:	c5 f8 77             	vzeroupper 
 51a:	c3                   	retq   
 51b:	0f 1f 44 00 00       	nopl   0x0(%rax,%rax,1)

0000000000000520 <Llarge_memcpy_2x_check>:
 520:	48 81 fa 00 00 10 00 	cmp    $0x100000,%rdx
 527:	0f 82 24 fe ff ff    	jb     351 <Lmore_8x_vec_check>

000000000000052d <Llarge_memcpy_2x>:
 52d:	48 f7 d9             	neg    %rcx
 530:	48 39 ca             	cmp    %rcx,%rdx
 533:	0f 87 32 fe ff ff    	ja     36b <Lmore_8x_vec_forward>
 539:	c5 7e 6f 4e 20       	vmovdqu 0x20(%rsi),%ymm9
 53e:	c5 fe 7f 27          	vmovdqu %ymm4,(%rdi)
 542:	c5 7e 7f 4f 20       	vmovdqu %ymm9,0x20(%rdi)
 547:	49 89 f8             	mov    %rdi,%r8
 54a:	49 83 e0 3f          	and    $0x3f,%r8
 54e:	49 83 e8 40          	sub    $0x40,%r8
 552:	4c 29 c6             	sub    %r8,%rsi
 555:	4c 29 c7             	sub    %r8,%rdi
 558:	4c 01 c2             	add    %r8,%rdx
 55b:	f7 c1 00 0f 00 00    	test   $0xf00,%ecx
 561:	0f 84 89 01 00 00    	je     6f0 <Llarge_memcpy_4x>
 567:	49 89 d2             	mov    %rdx,%r10
 56a:	49 c1 ea 04          	shr    $0x4,%r10
 56e:	49 81 fa 00 00 10 00 	cmp    $0x100000,%r10
 575:	0f 83 75 01 00 00    	jae    6f0 <Llarge_memcpy_4x>
 57b:	81 e2 ff 1f 00 00    	and    $0x1fff,%edx
 581:	49 c1 ea 09          	shr    $0x9,%r10
 585:	66 66 2e 0f 1f 84 00 	data16 nopw %cs:0x0(%rax,%rax,1)
 58c:	00 00 00 00 

0000000000000590 <Lloop_large_memcpy_2x_outer>:
 590:	b9 20 00 00 00       	mov    $0x20,%ecx

0000000000000595 <Lloop_large_memcpy_2x_inner>:
 595:	0f 18 8e 80 00 00 00 	prefetcht0 0x80(%rsi)
 59c:	0f 18 8e c0 00 00 00 	prefetcht0 0xc0(%rsi)
 5a3:	0f 18 8e 00 01 00 00 	prefetcht0 0x100(%rsi)
 5aa:	0f 18 8e 40 01 00 00 	prefetcht0 0x140(%rsi)
 5b1:	0f 18 8e 80 10 00 00 	prefetcht0 0x1080(%rsi)
 5b8:	0f 18 8e c0 10 00 00 	prefetcht0 0x10c0(%rsi)
 5bf:	0f 18 8e 00 11 00 00 	prefetcht0 0x1100(%rsi)
 5c6:	0f 18 8e 40 11 00 00 	prefetcht0 0x1140(%rsi)
 5cd:	c5 fe 6f 06          	vmovdqu (%rsi),%ymm0
 5d1:	c5 fe 6f 4e 20       	vmovdqu 0x20(%rsi),%ymm1
 5d6:	c5 fe 6f 56 40       	vmovdqu 0x40(%rsi),%ymm2
 5db:	c5 fe 6f 5e 60       	vmovdqu 0x60(%rsi),%ymm3
 5e0:	c5 fe 6f a6 00 10 00 	vmovdqu 0x1000(%rsi),%ymm4
 5e7:	00 
 5e8:	c5 fe 6f ae 20 10 00 	vmovdqu 0x1020(%rsi),%ymm5
 5ef:	00 
 5f0:	c5 fe 6f b6 40 10 00 	vmovdqu 0x1040(%rsi),%ymm6
 5f7:	00 
 5f8:	c5 fe 6f be 60 10 00 	vmovdqu 0x1060(%rsi),%ymm7
 5ff:	00 
 600:	48 83 ee 80          	sub    $0xffffffffffffff80,%rsi
 604:	c5 fd e7 07          	vmovntdq %ymm0,(%rdi)
 608:	c5 fd e7 4f 20       	vmovntdq %ymm1,0x20(%rdi)
 60d:	c5 fd e7 57 40       	vmovntdq %ymm2,0x40(%rdi)
 612:	c5 fd e7 5f 60       	vmovntdq %ymm3,0x60(%rdi)
 617:	c5 fd e7 a7 00 10 00 	vmovntdq %ymm4,0x1000(%rdi)
 61e:	00 
 61f:	c5 fd e7 af 20 10 00 	vmovntdq %ymm5,0x1020(%rdi)
 626:	00 
 627:	c5 fd e7 b7 40 10 00 	vmovntdq %ymm6,0x1040(%rdi)
 62e:	00 
 62f:	c5 fd e7 bf 60 10 00 	vmovntdq %ymm7,0x1060(%rdi)
 636:	00 
 637:	48 83 ef 80          	sub    $0xffffffffffffff80,%rdi
 63b:	ff c9                	dec    %ecx
 63d:	0f 85 52 ff ff ff    	jne    595 <Lloop_large_memcpy_2x_inner>
 643:	48 81 c7 00 10 00 00 	add    $0x1000,%rdi
 64a:	48 81 c6 00 10 00 00 	add    $0x1000,%rsi
 651:	49 ff ca             	dec    %r10
 654:	0f 85 36 ff ff ff    	jne    590 <Lloop_large_memcpy_2x_outer>
 65a:	0f ae f8             	sfence 
 65d:	81 fa 80 00 00 00    	cmp    $0x80,%edx
 663:	76 55                	jbe    6ba <Llarge_memcpy_2x_end>

0000000000000665 <Lloop_large_memcpy_2x_tail>:
 665:	0f 18 8e 80 00 00 00 	prefetcht0 0x80(%rsi)
 66c:	0f 18 8e c0 00 00 00 	prefetcht0 0xc0(%rsi)
 673:	0f 18 8f 80 00 00 00 	prefetcht0 0x80(%rdi)
 67a:	0f 18 8f c0 00 00 00 	prefetcht0 0xc0(%rdi)
 681:	c5 fe 6f 06          	vmovdqu (%rsi),%ymm0
 685:	c5 fe 6f 4e 20       	vmovdqu 0x20(%rsi),%ymm1
 68a:	c5 fe 6f 56 40       	vmovdqu 0x40(%rsi),%ymm2
 68f:	c5 fe 6f 5e 60       	vmovdqu 0x60(%rsi),%ymm3
 694:	48 83 ee 80          	sub    $0xffffffffffffff80,%rsi
 698:	83 c2 80             	add    $0xffffff80,%edx
 69b:	c5 fd 7f 07          	vmovdqa %ymm0,(%rdi)
 69f:	c5 fd 7f 4f 20       	vmovdqa %ymm1,0x20(%rdi)
 6a4:	c5 fd 7f 57 40       	vmovdqa %ymm2,0x40(%rdi)
 6a9:	c5 fd 7f 5f 60       	vmovdqa %ymm3,0x60(%rdi)
 6ae:	48 83 ef 80          	sub    $0xffffffffffffff80,%rdi
 6b2:	81 fa 80 00 00 00    	cmp    $0x80,%edx
 6b8:	77 ab                	ja     665 <Lloop_large_memcpy_2x_tail>

00000000000006ba <Llarge_memcpy_2x_end>:
 6ba:	c5 fe 6f 44 16 80    	vmovdqu -0x80(%rsi,%rdx,1),%ymm0
 6c0:	c5 fe 6f 4c 16 a0    	vmovdqu -0x60(%rsi,%rdx,1),%ymm1
 6c6:	c5 fe 6f 54 16 c0    	vmovdqu -0x40(%rsi,%rdx,1),%ymm2
 6cc:	c5 fe 6f 5c 16 e0    	vmovdqu -0x20(%rsi,%rdx,1),%ymm3
 6d2:	c5 fe 7f 44 17 80    	vmovdqu %ymm0,-0x80(%rdi,%rdx,1)
 6d8:	c5 fe 7f 4c 17 a0    	vmovdqu %ymm1,-0x60(%rdi,%rdx,1)
 6de:	c5 fe 7f 54 17 c0    	vmovdqu %ymm2,-0x40(%rdi,%rdx,1)
 6e4:	c5 fe 7f 5c 17 e0    	vmovdqu %ymm3,-0x20(%rdi,%rdx,1)
 6ea:	c5 f8 77             	vzeroupper 
 6ed:	c3                   	retq   
 6ee:	66 90                	xchg   %ax,%ax

00000000000006f0 <Llarge_memcpy_4x>:
 6f0:	49 89 d2             	mov    %rdx,%r10
 6f3:	81 e2 ff 3f 00 00    	and    $0x3fff,%edx
 6f9:	49 c1 ea 0e          	shr    $0xe,%r10
 6fd:	0f 1f 00             	nopl   (%rax)

0000000000000700 <Lloop_large_memcpy_4x_outer>:
 700:	b9 20 00 00 00       	mov    $0x20,%ecx

0000000000000705 <Lloop_large_memcpy_4x_inner>:
 705:	0f 18 8e 80 00 00 00 	prefetcht0 0x80(%rsi)
 70c:	0f 18 8e c0 00 00 00 	prefetcht0 0xc0(%rsi)
 713:	0f 18 8e 80 10 00 00 	prefetcht0 0x1080(%rsi)
 71a:	0f 18 8e c0 10 00 00 	prefetcht0 0x10c0(%rsi)
 721:	0f 18 8e 80 20 00 00 	prefetcht0 0x2080(%rsi)
 728:	0f 18 8e c0 20 00 00 	prefetcht0 0x20c0(%rsi)
 72f:	0f 18 8e 80 30 00 00 	prefetcht0 0x3080(%rsi)
 736:	0f 18 8e c0 30 00 00 	prefetcht0 0x30c0(%rsi)
 73d:	c5 fe 6f 06          	vmovdqu (%rsi),%ymm0
 741:	c5 fe 6f 4e 20       	vmovdqu 0x20(%rsi),%ymm1
 746:	c5 fe 6f 56 40       	vmovdqu 0x40(%rsi),%ymm2
 74b:	c5 fe 6f 5e 60       	vmovdqu 0x60(%rsi),%ymm3
 750:	c5 fe 6f a6 00 10 00 	vmovdqu 0x1000(%rsi),%ymm4
 757:	00 
 758:	c5 fe 6f ae 20 10 00 	vmovdqu 0x1020(%rsi),%ymm5
 75f:	00 
 760:	c5 fe 6f b6 40 10 00 	vmovdqu 0x1040(%rsi),%ymm6
 767:	00 
 768:	c5 fe 6f be 60 10 00 	vmovdqu 0x1060(%rsi),%ymm7
 76f:	00 
 770:	c5 7e 6f 86 00 20 00 	vmovdqu 0x2000(%rsi),%ymm8
 777:	00 
 778:	c5 7e 6f 8e 20 20 00 	vmovdqu 0x2020(%rsi),%ymm9
 77f:	00 
 780:	c5 7e 6f 96 40 20 00 	vmovdqu 0x2040(%rsi),%ymm10
 787:	00 
 788:	c5 7e 6f 9e 60 20 00 	vmovdqu 0x2060(%rsi),%ymm11
 78f:	00 
 790:	c5 7e 6f a6 00 30 00 	vmovdqu 0x3000(%rsi),%ymm12
 797:	00 
 798:	c5 7e 6f ae 20 30 00 	vmovdqu 0x3020(%rsi),%ymm13
 79f:	00 
 7a0:	c5 7e 6f b6 40 30 00 	vmovdqu 0x3040(%rsi),%ymm14
 7a7:	00 
 7a8:	c5 7e 6f be 60 30 00 	vmovdqu 0x3060(%rsi),%ymm15
 7af:	00 
 7b0:	48 83 ee 80          	sub    $0xffffffffffffff80,%rsi
 7b4:	c5 fd e7 07          	vmovntdq %ymm0,(%rdi)
 7b8:	c5 fd e7 4f 20       	vmovntdq %ymm1,0x20(%rdi)
 7bd:	c5 fd e7 57 40       	vmovntdq %ymm2,0x40(%rdi)
 7c2:	c5 fd e7 5f 60       	vmovntdq %ymm3,0x60(%rdi)
 7c7:	c5 fd e7 a7 00 10 00 	vmovntdq %ymm4,0x1000(%rdi)
 7ce:	00 
 7cf:	c5 fd e7 af 20 10 00 	vmovntdq %ymm5,0x1020(%rdi)
 7d6:	00 
 7d7:	c5 fd e7 b7 40 10 00 	vmovntdq %ymm6,0x1040(%rdi)
 7de:	00 
 7df:	c5 fd e7 bf 60 10 00 	vmovntdq %ymm7,0x1060(%rdi)
 7e6:	00 
 7e7:	c5 7d e7 87 00 20 00 	vmovntdq %ymm8,0x2000(%rdi)
 7ee:	00 
 7ef:	c5 7d e7 8f 20 20 00 	vmovntdq %ymm9,0x2020(%rdi)
 7f6:	00 
 7f7:	c5 7d e7 97 40 20 00 	vmovntdq %ymm10,0x2040(%rdi)
 7fe:	00 
 7ff:	c5 7d e7 9f 60 20 00 	vmovntdq %ymm11,0x2060(%rdi)
 806:	00 
 807:	c5 7d e7 a7 00 30 00 	vmovntdq %ymm12,0x3000(%rdi)
 80e:	00 
 80f:	c5 7d e7 af 20 30 00 	vmovntdq %ymm13,0x3020(%rdi)
 816:	00 
 817:	c5 7d e7 b7 40 30 00 	vmovntdq %ymm14,0x3040(%rdi)
 81e:	00 
 81f:	c5 7d e7 bf 60 30 00 	vmovntdq %ymm15,0x3060(%rdi)
 826:	00 
 827:	48 83 ef 80          	sub    $0xffffffffffffff80,%rdi
 82b:	ff c9                	dec    %ecx
 82d:	0f 85 d2 fe ff ff    	jne    705 <Lloop_large_memcpy_4x_inner>
 833:	48 81 c7 00 30 00 00 	add    $0x3000,%rdi
 83a:	48 81 c6 00 30 00 00 	add    $0x3000,%rsi
 841:	49 ff ca             	dec    %r10
 844:	0f 85 b6 fe ff ff    	jne    700 <Lloop_large_memcpy_4x_outer>
 84a:	0f ae f8             	sfence 
 84d:	81 fa 80 00 00 00    	cmp    $0x80,%edx
 853:	76 55                	jbe    8aa <Llarge_memcpy_4x_end>

0000000000000855 <Lloop_large_memcpy_4x_tail>:
 855:	0f 18 8e 80 00 00 00 	prefetcht0 0x80(%rsi)
 85c:	0f 18 8e c0 00 00 00 	prefetcht0 0xc0(%rsi)
 863:	0f 18 8f 80 00 00 00 	prefetcht0 0x80(%rdi)
 86a:	0f 18 8f c0 00 00 00 	prefetcht0 0xc0(%rdi)
 871:	c5 fe 6f 06          	vmovdqu (%rsi),%ymm0
 875:	c5 fe 6f 4e 20       	vmovdqu 0x20(%rsi),%ymm1
 87a:	c5 fe 6f 56 40       	vmovdqu 0x40(%rsi),%ymm2
 87f:	c5 fe 6f 5e 60       	vmovdqu 0x60(%rsi),%ymm3
 884:	48 83 ee 80          	sub    $0xffffffffffffff80,%rsi
 888:	83 c2 80             	add    $0xffffff80,%edx
 88b:	c5 fd 7f 07          	vmovdqa %ymm0,(%rdi)
 88f:	c5 fd 7f 4f 20       	vmovdqa %ymm1,0x20(%rdi)
 894:	c5 fd 7f 57 40       	vmovdqa %ymm2,0x40(%rdi)
 899:	c5 fd 7f 5f 60       	vmovdqa %ymm3,0x60(%rdi)
 89e:	48 83 ef 80          	sub    $0xffffffffffffff80,%rdi
 8a2:	81 fa 80 00 00 00    	cmp    $0x80,%edx
 8a8:	77 ab                	ja     855 <Lloop_large_memcpy_4x_tail>

00000000000008aa <Llarge_memcpy_4x_end>:
 8aa:	c5 fe 6f 44 16 80    	vmovdqu -0x80(%rsi,%rdx,1),%ymm0
 8b0:	c5 fe 6f 4c 16 a0    	vmovdqu -0x60(%rsi,%rdx,1),%ymm1
 8b6:	c5 fe 6f 54 16 c0    	vmovdqu -0x40(%rsi,%rdx,1),%ymm2
 8bc:	c5 fe 6f 5c 16 e0    	vmovdqu -0x20(%rsi,%rdx,1),%ymm3
 8c2:	c5 fe 7f 44 17 80    	vmovdqu %ymm0,-0x80(%rdi,%rdx,1)
 8c8:	c5 fe 7f 4c 17 a0    	vmovdqu %ymm1,-0x60(%rdi,%rdx,1)
 8ce:	c5 fe 7f 54 17 c0    	vmovdqu %ymm2,-0x40(%rdi,%rdx,1)
 8d4:	c5 fe 7f 5c 17 e0    	vmovdqu %ymm3,-0x20(%rdi,%rdx,1)
 8da:	c5 f8 77             	vzeroupper 
 8dd:	c3                   	retq   
